target datalayout = "e-m:e-p270:32:32-p271:32:32-p272:64:64-i64:64-i128:128-f80:128-n8:16:32:64-S128"
target triple = "x86_64-pc-linux-gnu"

%struct.asn1_string_st = type { i32, i32, ptr, i64 }

@.str = private unnamed_addr constant [26 x i8] c"../openssl/ssl/ssl_asn1.c\00", align 1

; Function Attrs: nounwind uwtable
define internal i32 @ssl_session_strndup(ptr noundef %0, ptr noundef %1) #0 {
  %3 = alloca i32, align 4
  %4 = alloca ptr, align 8
  %5 = alloca ptr, align 8
  store ptr %0, ptr %4, align 8, !tbaa !8
  store ptr %1, ptr %5, align 8, !tbaa !78
  %6 = load ptr, ptr %4, align 8, !tbaa !8
  %7 = load ptr, ptr %6, align 8, !tbaa !79
  call void @CRYPTO_free(ptr noundef %7, ptr noundef @.str, i32 noundef 231)
  %8 = load ptr, ptr %4, align 8, !tbaa !8
  store ptr null, ptr %8, align 8, !tbaa !79
  %9 = load ptr, ptr %5, align 8, !tbaa !78
  %10 = icmp eq ptr %9, null
  br i1 %10, label %11, label %12

11:                                               ; preds = %2
  store i32 1, ptr %3, align 4
  br label %27

12:                                               ; preds = %2
  %13 = load ptr, ptr %5, align 8, !tbaa !78
  %14 = getelementptr inbounds nuw %struct.asn1_string_st, ptr %13, i32 0, i32 2
  %15 = load ptr, ptr %14, align 8, !tbaa !49
  %16 = load ptr, ptr %5, align 8, !tbaa !78
  %17 = getelementptr inbounds nuw %struct.asn1_string_st, ptr %16, i32 0, i32 0
  %18 = load i32, ptr %17, align 8, !tbaa !52
  %19 = sext i32 %18 to i64
  %20 = call noalias ptr @CRYPTO_strndup(ptr noundef %15, i64 noundef %19, ptr noundef @.str, i32 noundef 235)
  %21 = load ptr, ptr %4, align 8, !tbaa !8
  store ptr %20, ptr %21, align 8, !tbaa !79
  %22 = load ptr, ptr %4, align 8, !tbaa !8
  %23 = load ptr, ptr %22, align 8, !tbaa !79
  %24 = icmp eq ptr %23, null
  br i1 %24, label %25, label %26

25:                                               ; preds = %12
  store i32 0, ptr %3, align 4
  br label %27

26:                                               ; preds = %12
  store i32 1, ptr %3, align 4
  br label %27

27:                                               ; preds = %26, %25, %11
  %28 = load i32, ptr %3, align 4
  ret i32 %28
}