; Function Attrs: nounwind uwtable
define internal fastcc range(i32 0, 2) i32 @ssl_session_strndup(ptr noundef nonnull captures(none) %0, ptr noundef readonly captures(address_is_null) %1) unnamed_addr #0 {
  %3 = load ptr, ptr %0, align 8, !tbaa !71
  tail call void @CRYPTO_free(ptr noundef %3, ptr noundef nonnull @.str, i32 noundef 231) #6
  store ptr null, ptr %0, align 8, !tbaa !71
  %4 = icmp eq ptr %1, null
  br i1 %4, label %12, label %5

5:                                                ; preds = %2
  %6 = getelementptr inbounds nuw i8, ptr %1, i64 8
  %7 = load ptr, ptr %6, align 8, !tbaa !34
  %8 = load i32, ptr %1, align 8, !tbaa !36
  %9 = sext i32 %8 to i64
  %10 = tail call noalias ptr @CRYPTO_strndup(ptr noundef %7, i64 noundef %9, ptr noundef nonnull @.str, i32 noundef 235) #6
  store ptr %10, ptr %0, align 8, !tbaa !71
  %11 = icmp ne ptr %10, null
  %. = zext i1 %11 to i32
  br label %12

12:                                               ; preds = %5, %2
  %.0 = phi i32 [ 1, %2 ], [ %., %5 ]
  ret i32 %.0
}